; Function Attrs: mustprogress nofree nounwind memory(readwrite, inaccessiblemem: write) uwtable
define hidden void @_ZN5logos9PointPair26calculateInternalVariablesEv(ptr noundef nonnull align 8 captures(none) dereferenceable(36) %0) local_unnamed_addr #1 align 2 {
  %2 = load ptr, ptr %0, align 8, !tbaa !3
  %3 = getelementptr inbounds nuw i8, ptr %2, i64 8
  %4 = load float, ptr %3, align 8, !tbaa !15
  %5 = getelementptr inbounds nuw i8, ptr %0, i64 8
  %6 = load ptr, ptr %5, align 8, !tbaa !11
  %7 = getelementptr inbounds nuw i8, ptr %6, i64 8
  %8 = load float, ptr %7, align 8, !tbaa !15
  %9 = fsub float %4, %8
  %10 = fpext float %9 to double
  %11 = fcmp ogt double %10, 0x400921FB54442D18
  br i1 %11, label %.lr.ph.i, label %.preheader.i

.preheader.i:                                     ; preds = %.lr.ph.i, %1
  %.pre-phi.i = phi double [ %10, %1 ], [ %16, %.lr.ph.i ]
  %.0.lcssa.i = phi float [ %9, %1 ], [ %15, %.lr.ph.i ]
  %12 = fcmp olt double %.pre-phi.i, 0xC00921FB54442D18
  br i1 %12, label %.lr.ph9.i, label %_ZN5logos9PointPair9angleDiffEff.exit

.lr.ph.i:                                         ; preds = %1, %.lr.ph.i
  %13 = phi double [ %16, %.lr.ph.i ], [ %10, %1 ]
  %14 = fadd double %13, 0xC01921FB54442D18
  %15 = fptrunc double %14 to float
  %16 = fpext float %15 to double
  %17 = fcmp ogt double %16, 0x400921FB54442D18
  br i1 %17, label %.lr.ph.i, label %.preheader.i, !llvm.loop !24

.lr.ph9.i:                                        ; preds = %.preheader.i, %.lr.ph9.i
  %18 = phi double [ %21, %.lr.ph9.i ], [ %.pre-phi.i, %.preheader.i ]
  %19 = fadd double %18, 0x401921FB54442D18
  %20 = fptrunc double %19 to float
  %21 = fpext float %20 to double
  %22 = fcmp olt double %21, 0xC00921FB54442D18
  br i1 %22, label %.lr.ph9.i, label %_ZN5logos9PointPair9angleDiffEff.exit, !llvm.loop !26

_ZN5logos9PointPair9angleDiffEff.exit:            ; preds = %.lr.ph9.i, %.preheader.i
  %.1.lcssa.i = phi float [ %.0.lcssa.i, %.preheader.i ], [ %20, %.lr.ph9.i ]
  %23 = getelementptr inbounds nuw i8, ptr %0, i64 20
  store float %.1.lcssa.i, ptr %23, align 4, !tbaa !27
  %24 = getelementptr inbounds nuw i8, ptr %2, i64 12
  %25 = load float, ptr %24, align 4, !tbaa !28
  %26 = tail call noundef float @logf(float noundef %25) #15, !tbaa !29
  %27 = getelementptr inbounds nuw i8, ptr %6, i64 12
  %28 = load float, ptr %27, align 4, !tbaa !28
  %29 = tail call noundef float @logf(float noundef %28) #15, !tbaa !29
  %30 = fsub float %26, %29
  %31 = getelementptr inbounds nuw i8, ptr %0, i64 24
  store float %30, ptr %31, align 8, !tbaa !30
  ret void
}